; ModuleID = 'source-C-CXX/26/377.c'
source_filename = "source-C-CXX/26/377.c"
target datalayout = "e-m:e-p270:32:32-p271:32:32-p272:64:64-i64:64-f80:128-n8:16:32:64-S128"
target triple = "x86_64-pc-linux-gnu"

@.str = private unnamed_addr constant [3 x i8] c"%d\00", align 1
@.str.1 = private unnamed_addr constant [10 x i8] c"%lf%lf%lf\00", align 1
@.str.2 = private unnamed_addr constant [17 x i8] c"x1=%.5f;x2=%.5f\0A\00", align 1
@.str.3 = private unnamed_addr constant [12 x i8] c"x1=x2=%.5f\0A\00", align 1
@.str.4 = private unnamed_addr constant [29 x i8] c"x1=%.5f+%.5fi;x2=%.5f-%.5fi\0A\00", align 1

; Function Attrs: nofree nounwind sspstrong uwtable
define dso_local void @main() local_unnamed_addr #0 {
  %1 = alloca double, align 8
  %2 = alloca double, align 8
  %3 = alloca double, align 8
  %4 = alloca i32, align 4
  %5 = bitcast double* %1 to i8*
  call void @llvm.lifetime.start.p0i8(i64 8, i8* nonnull %5) #4
  %6 = bitcast double* %2 to i8*
  call void @llvm.lifetime.start.p0i8(i64 8, i8* nonnull %6) #4
  %7 = bitcast double* %3 to i8*
  call void @llvm.lifetime.start.p0i8(i64 8, i8* nonnull %7) #4
  %8 = bitcast i32* %4 to i8*
  call void @llvm.lifetime.start.p0i8(i64 4, i8* nonnull %8) #4
  %9 = call i32 (i8*, ...) @__isoc99_scanf(i8* getelementptr inbounds ([3 x i8], [3 x i8]* @.str, i64 0, i64 0), i32* nonnull %4)
  %10 = load i32, i32* %4, align 4, !tbaa !5
  %11 = icmp slt i32 %10, 1
  br i1 %11, label %100, label %12

12:                                               ; preds = %0, %96
  %13 = phi i32 [ %97, %96 ], [ 1, %0 ]
  %14 = call i32 (i8*, ...) @__isoc99_scanf(i8* getelementptr inbounds ([10 x i8], [10 x i8]* @.str.1, i64 0, i64 0), double* nonnull %1, double* nonnull %2, double* nonnull %3)
  %15 = load double, double* %2, align 8, !tbaa !9
  %16 = fmul double %15, %15
  %17 = load double, double* %1, align 8, !tbaa !9
  %18 = fmul double %17, 4.000000e+00
  %19 = load double, double* %3, align 8, !tbaa !9
  %20 = fmul double %18, %19
  %21 = fsub double %16, %20
  %22 = fcmp ogt double %21, 0.000000e+00
  br i1 %22, label %23, label %42

23:                                               ; preds = %12
  %24 = call double @sqrt(double %21) #4
  %25 = fsub double %24, %15
  %26 = load double, double* %1, align 8, !tbaa !9
  %27 = fmul double %26, 2.000000e+00
  %28 = fdiv double %25, %27
  %29 = load double, double* %2, align 8, !tbaa !9
  %30 = fneg double %29
  %31 = fmul double %29, %29
  %32 = fmul double %26, 4.000000e+00
  %33 = load double, double* %3, align 8, !tbaa !9
  %34 = fmul double %32, %33
  %35 = fsub double %31, %34
  %36 = call double @sqrt(double %35) #4
  %37 = fsub double %30, %36
  %38 = load double, double* %1, align 8, !tbaa !9
  %39 = fmul double %38, 2.000000e+00
  %40 = fdiv double %37, %39
  %41 = call i32 (i8*, ...) @printf(i8* nonnull dereferenceable(1) getelementptr inbounds ([17 x i8], [17 x i8]* @.str.2, i64 0, i64 0), double %28, double %40)
  br label %96

42:                                               ; preds = %12
  %43 = fcmp oeq double %21, 0.000000e+00
  br i1 %43, label %44, label %49

44:                                               ; preds = %42
  %45 = fneg double %15
  %46 = fmul double %17, 2.000000e+00
  %47 = fdiv double %45, %46
  %48 = call i32 (i8*, ...) @printf(i8* nonnull dereferenceable(1) getelementptr inbounds ([12 x i8], [12 x i8]* @.str.3, i64 0, i64 0), double %47)
  br label %96

49:                                               ; preds = %42
  %50 = fcmp olt double %21, 0.000000e+00
  br i1 %50, label %51, label %96

51:                                               ; preds = %49
  %52 = fneg double %15
  %53 = fmul double %17, 2.000000e+00
  %54 = fdiv double %52, %53
  %55 = fcmp une double %54, 0.000000e+00
  br i1 %55, label %56, label %76

56:                                               ; preds = %51
  %57 = fneg double %21
  %58 = call double @sqrt(double %57) #4
  %59 = load double, double* %1, align 8, !tbaa !9
  %60 = fmul double %59, 2.000000e+00
  %61 = fdiv double %58, %60
  %62 = load double, double* %2, align 8, !tbaa !9
  %63 = fneg double %62
  %64 = fdiv double %63, %60
  %65 = fmul double %62, %62
  %66 = fmul double %59, 4.000000e+00
  %67 = load double, double* %3, align 8, !tbaa !9
  %68 = fmul double %66, %67
  %69 = fsub double %65, %68
  %70 = fneg double %69
  %71 = call double @sqrt(double %70) #4
  %72 = load double, double* %1, align 8, !tbaa !9
  %73 = fmul double %72, 2.000000e+00
  %74 = fdiv double %71, %73
  %75 = call i32 (i8*, ...) @printf(i8* nonnull dereferenceable(1) getelementptr inbounds ([29 x i8], [29 x i8]* @.str.4, i64 0, i64 0), double %54, double %61, double %64, double %74)
  br label %96

76:                                               ; preds = %51
  %77 = fdiv double %15, %53
  %78 = fneg double %21
  %79 = call double @sqrt(double %78) #4
  %80 = load double, double* %1, align 8, !tbaa !9
  %81 = fmul double %80, 2.000000e+00
  %82 = fdiv double %79, %81
  %83 = load double, double* %2, align 8, !tbaa !9
  %84 = fdiv double %83, %81
  %85 = fmul double %83, %83
  %86 = fmul double %80, 4.000000e+00
  %87 = load double, double* %3, align 8, !tbaa !9
  %88 = fmul double %86, %87
  %89 = fsub double %85, %88
  %90 = fneg double %89
  %91 = call double @sqrt(double %90) #4
  %92 = load double, double* %1, align 8, !tbaa !9
  %93 = fmul double %92, 2.000000e+00
  %94 = fdiv double %91, %93
  %95 = call i32 (i8*, ...) @printf(i8* nonnull dereferenceable(1) getelementptr inbounds ([29 x i8], [29 x i8]* @.str.4, i64 0, i64 0), double %77, double %82, double %84, double %94)
  br label %96

96:                                               ; preds = %23, %49, %76, %56, %44
  %97 = add nuw nsw i32 %13, 1
  %98 = load i32, i32* %4, align 4, !tbaa !5
  %99 = icmp slt i32 %13, %98
  br i1 %99, label %12, label %100, !llvm.loop !11

100:                                              ; preds = %96, %0
  call void @llvm.lifetime.end.p0i8(i64 4, i8* nonnull %8) #4
  call void @llvm.lifetime.end.p0i8(i64 8, i8* nonnull %7) #4
  call void @llvm.lifetime.end.p0i8(i64 8, i8* nonnull %6) #4
  call void @llvm.lifetime.end.p0i8(i64 8, i8* nonnull %5) #4
  ret void
}

; Function Attrs: argmemonly mustprogress nofree nosync nounwind willreturn
declare void @llvm.lifetime.start.p0i8(i64 immarg, i8* nocapture) #1

; Function Attrs: nofree nounwind
declare noundef i32 @__isoc99_scanf(i8* nocapture noundef readonly, ...) local_unnamed_addr #2

; Function Attrs: nofree nounwind
declare noundef i32 @printf(i8* nocapture noundef readonly, ...) local_unnamed_addr #2

; Function Attrs: mustprogress nofree nounwind willreturn
declare double @sqrt(double) local_unnamed_addr #3

; Function Attrs: argmemonly mustprogress nofree nosync nounwind willreturn
declare void @llvm.lifetime.end.p0i8(i64 immarg, i8* nocapture) #1


!llvm.module.flags = !{!0, !1, !2, !3}
!llvm.ident = !{!4}

!0 = !{i32 1, !"wchar_size", i32 4}
!1 = !{i32 7, !"PIC Level", i32 2}
!2 = !{i32 7, !"PIE Level", i32 2}
!3 = !{i32 7, !"uwtable", i32 1}
!4 = !{!"clang version 13.0.0"}
!5 = !{!6, !6, i64 0}
!6 = !{!"int", !7, i64 0}
!7 = !{!"omnipotent char", !8, i64 0}
!8 = !{!"Simple C/C++ TBAA"}
!9 = !{!10, !10, i64 0}
!10 = !{!"double", !7, i64 0}
!11 = distinct !{!11, !12}
!12 = !{!"llvm.loop.mustprogress"}
